target datalayout = "e-m:e-p270:32:32-p271:32:32-p272:64:64-i64:64-i128:128-f80:128-n8:16:32:64-S128"
target triple = "x86_64-pc-linux-gnu"

%class.Node = type <{ ptr, ptr, ptr, i32, i32, i32, i32, i32, i32, i32, [4 x i8] }>

; Function Attrs: mustprogress nounwind uwtable
define linkonce_odr hidden noundef zeroext i1 @_ZNK4Node20is_predicated_vectorEv(ptr noundef nonnull align 8 dereferenceable(52) %0) #1 comdat align 2 {
  %2 = alloca ptr, align 8
  store ptr %0, ptr %2, align 8
  %3 = load ptr, ptr %2, align 8
  %4 = getelementptr inbounds %class.Node, ptr %3, i32 0, i32 9
  %5 = load i32, ptr %4, align 8
  %6 = and i32 %5, 16384
  %7 = icmp ne i32 %6, 0
  ret i1 %7
}

; Function Attrs: mustprogress nounwind uwtable
define linkonce_odr hidden noundef zeroext i1 @_ZNK4Node25is_predicated_using_blendEv(ptr noundef nonnull align 8 dereferenceable(52) %0) #1 comdat align 2 {
  %2 = alloca ptr, align 8
  store ptr %0, ptr %2, align 8
  %3 = load ptr, ptr %2, align 8
  %4 = getelementptr inbounds %class.Node, ptr %3, i32 0, i32 9
  %5 = load i32, ptr %4, align 8
  %6 = and i32 %5, 131072
  %7 = icmp ne i32 %6, 0
  ret i1 %7
}

; Function Attrs: mustprogress nounwind uwtable
define internal noundef ptr @_ZL27reverse_operations_identityP4NodeS0_(ptr noundef %0, ptr noundef %1) #1 {
  %3 = alloca ptr, align 8
  %4 = alloca ptr, align 8
  %5 = alloca ptr, align 8
  store ptr %0, ptr %4, align 8
  store ptr %1, ptr %5, align 8
  %6 = load ptr, ptr %4, align 8
  %7 = call noundef zeroext i1 @_ZNK4Node25is_predicated_using_blendEv(ptr noundef nonnull align 8 dereferenceable(52) %6)
  br i1 %7, label %8, label %10

8:                                                ; preds = %2
  %9 = load ptr, ptr %4, align 8
  store ptr %9, ptr %3, align 8
  br label %50

10:                                               ; preds = %2
  %11 = load ptr, ptr %4, align 8
  %12 = load ptr, ptr %11, align 8
  %13 = getelementptr inbounds ptr, ptr %12, i64 0
  %14 = load ptr, ptr %13, align 8
  %15 = call noundef i32 %14(ptr noundef nonnull align 8 dereferenceable(52) %11)
  %16 = load ptr, ptr %5, align 8
  %17 = load ptr, ptr %16, align 8
  %18 = getelementptr inbounds ptr, ptr %17, i64 0
  %19 = load ptr, ptr %18, align 8
  %20 = call noundef i32 %19(ptr noundef nonnull align 8 dereferenceable(52) %16)
  %21 = icmp eq i32 %15, %20
  br i1 %21, label %22, label %48

22:                                               ; preds = %10
  %23 = load ptr, ptr %4, align 8
  %24 = call noundef zeroext i1 @_ZNK4Node20is_predicated_vectorEv(ptr noundef nonnull align 8 dereferenceable(52) %23)
  br i1 %24, label %25, label %37

25:                                               ; preds = %22
  %26 = load ptr, ptr %5, align 8
  %27 = call noundef zeroext i1 @_ZNK4Node20is_predicated_vectorEv(ptr noundef nonnull align 8 dereferenceable(52) %26)
  br i1 %27, label %28, label %37

28:                                               ; preds = %25
  %29 = load ptr, ptr %4, align 8
  %30 = call noundef ptr @_ZNK4Node2inEj(ptr noundef nonnull align 8 dereferenceable(52) %29, i32 noundef 2)
  %31 = load ptr, ptr %5, align 8
  %32 = call noundef ptr @_ZNK4Node2inEj(ptr noundef nonnull align 8 dereferenceable(52) %31, i32 noundef 2)
  %33 = icmp eq ptr %30, %32
  br i1 %33, label %34, label %37

34:                                               ; preds = %28
  %35 = load ptr, ptr %5, align 8
  %36 = call noundef ptr @_ZNK4Node2inEj(ptr noundef nonnull align 8 dereferenceable(52) %35, i32 noundef 1)
  store ptr %36, ptr %3, align 8
  br label %50

37:                                               ; preds = %28, %25, %22
  %38 = load ptr, ptr %4, align 8
  %39 = call noundef zeroext i1 @_ZNK4Node20is_predicated_vectorEv(ptr noundef nonnull align 8 dereferenceable(52) %38)
  br i1 %39, label %46, label %40

40:                                               ; preds = %37
  %41 = load ptr, ptr %5, align 8
  %42 = call noundef zeroext i1 @_ZNK4Node20is_predicated_vectorEv(ptr noundef nonnull align 8 dereferenceable(52) %41)
  br i1 %42, label %46, label %43

43:                                               ; preds = %40
  %44 = load ptr, ptr %5, align 8
  %45 = call noundef ptr @_ZNK4Node2inEj(ptr noundef nonnull align 8 dereferenceable(52) %44, i32 noundef 1)
  store ptr %45, ptr %3, align 8
  br label %50

46:                                               ; preds = %40, %37
  br label %47

47:                                               ; preds = %46
  br label %48

48:                                               ; preds = %47, %10
  %49 = load ptr, ptr %4, align 8
  store ptr %49, ptr %3, align 8
  br label %50

50:                                               ; preds = %48, %43, %34, %8
  %51 = load ptr, ptr %3, align 8
  ret ptr %51
}

; Function Attrs: mustprogress nounwind uwtable
define linkonce_odr hidden noundef ptr @_ZNK4Node2inEj(ptr noundef nonnull align 8 dereferenceable(52) %0, i32 noundef %1) #1 comdat align 2 {
  %3 = alloca ptr, align 8
  %4 = alloca i32, align 4
  store ptr %0, ptr %3, align 8
  store i32 %1, ptr %4, align 4
  %5 = load ptr, ptr %3, align 8
  %6 = getelementptr inbounds %class.Node, ptr %5, i32 0, i32 1
  %7 = load ptr, ptr %6, align 8
  %8 = load i32, ptr %4, align 4
  %9 = zext i32 %8 to i64
  %10 = getelementptr inbounds ptr, ptr %7, i64 %9
  %11 = load ptr, ptr %10, align 8
  ret ptr %11
}

; Function Attrs: mustprogress nounwind uwtable
define hidden noundef ptr @_ZN12ReverseVNode8IdentityEP8PhaseGVN(ptr noundef nonnull align 8 dereferenceable(64) %0, ptr noundef %1) unnamed_addr #1 align 2 {
  %3 = alloca ptr, align 8
  %4 = alloca ptr, align 8
  store ptr %0, ptr %3, align 8
  store ptr %1, ptr %4, align 8
  %5 = load ptr, ptr %3, align 8
  %6 = call noundef ptr @_ZNK4Node2inEj(ptr noundef nonnull align 8 dereferenceable(52) %5, i32 noundef 1)
  %7 = call noundef ptr @_ZL27reverse_operations_identityP4NodeS0_(ptr noundef %5, ptr noundef %6)
  ret ptr %7
}