; Function Attrs: mustprogress nounwind uwtable
define hidden noundef ptr @_ZN12ReverseVNode8IdentityEP8PhaseGVN(ptr noundef nonnull align 8 dereferenceable(64) %0, ptr nocapture readnone %1) unnamed_addr #1 align 2 {
  %3 = getelementptr inbounds i8, ptr %0, i64 8
  %4 = load ptr, ptr %3, align 8
  %5 = getelementptr inbounds i8, ptr %4, i64 8
  %6 = load ptr, ptr %5, align 8
  %7 = getelementptr inbounds i8, ptr %0, i64 48
  %8 = load i32, ptr %7, align 8
  %9 = and i32 %8, 131072
  %.not.i = icmp eq i32 %9, 0
  br i1 %.not.i, label %10, label %_ZL27reverse_operations_identityP4NodeS0_.exit

10:                                               ; preds = %2
  %11 = load ptr, ptr %0, align 8
  %12 = load ptr, ptr %11, align 8
  %13 = tail call noundef i32 %12(ptr noundef nonnull align 8 dereferenceable(52) %0) #8
  %14 = load ptr, ptr %6, align 8
  %15 = load ptr, ptr %14, align 8
  %16 = tail call noundef i32 %15(ptr noundef nonnull align 8 dereferenceable(52) %6) #8
  %17 = icmp eq i32 %13, %16
  br i1 %17, label %18, label %_ZL27reverse_operations_identityP4NodeS0_.exit

18:                                               ; preds = %10
  %19 = load i32, ptr %7, align 8
  %20 = and i32 %19, 16384
  %.not14.i = icmp eq i32 %20, 0
  %21 = getelementptr inbounds i8, ptr %6, i64 48
  %22 = load i32, ptr %21, align 8
  %23 = and i32 %22, 16384
  %.not15.i = icmp eq i32 %23, 0
  br i1 %.not14.i, label %34, label %24

24:                                               ; preds = %18
  br i1 %.not15.i, label %_ZL27reverse_operations_identityP4NodeS0_.exit, label %25

25:                                               ; preds = %24
  %26 = load ptr, ptr %3, align 8
  %27 = getelementptr inbounds i8, ptr %26, i64 16
  %28 = load ptr, ptr %27, align 8
  %29 = getelementptr inbounds i8, ptr %6, i64 8
  %30 = load ptr, ptr %29, align 8
  %31 = getelementptr inbounds i8, ptr %30, i64 16
  %32 = load ptr, ptr %31, align 8
  %33 = icmp eq ptr %28, %32
  br i1 %33, label %.thread.sink.split.i, label %_ZL27reverse_operations_identityP4NodeS0_.exit

34:                                               ; preds = %18
  br i1 %.not15.i, label %35, label %_ZL27reverse_operations_identityP4NodeS0_.exit

35:                                               ; preds = %34
  %36 = getelementptr inbounds i8, ptr %6, i64 8
  %37 = load ptr, ptr %36, align 8
  br label %.thread.sink.split.i

.thread.sink.split.i:                             ; preds = %35, %25
  %.sink17.i = phi ptr [ %37, %35 ], [ %30, %25 ]
  %38 = getelementptr inbounds i8, ptr %.sink17.i, i64 8
  %39 = load ptr, ptr %38, align 8
  br label %_ZL27reverse_operations_identityP4NodeS0_.exit

_ZL27reverse_operations_identityP4NodeS0_.exit:   ; preds = %2, %10, %24, %25, %34, %.thread.sink.split.i
  %.0.i = phi ptr [ %0, %2 ], [ %0, %34 ], [ %0, %10 ], [ %0, %25 ], [ %0, %24 ], [ %39, %.thread.sink.split.i ]
  ret ptr %.0.i
}